target datalayout = "e-m:e-p270:32:32-p271:32:32-p272:64:64-i64:64-i128:128-f80:128-n8:16:32:64-S128"
target triple = "x86_64-pc-linux-gnu"

; Function Attrs: mustprogress nounwind uwtable
define hidden noundef i32 @_ZN10duckdb_re210runetocharEPcPKi(ptr noundef %0, ptr noundef %1) #0 {
  %3 = alloca i32, align 4
  %4 = alloca ptr, align 8
  %5 = alloca ptr, align 8
  %6 = alloca i32, align 4
  %7 = alloca i32, align 4
  store ptr %0, ptr %4, align 8, !tbaa !8
  store ptr %1, ptr %5, align 8, !tbaa !3
  call void @llvm.lifetime.start.p0(i64 4, ptr %6) #3
  %8 = load ptr, ptr %5, align 8, !tbaa !3
  %9 = load i32, ptr %8, align 4, !tbaa !11
  store i32 %9, ptr %6, align 4, !tbaa !11
  %10 = load i32, ptr %6, align 4, !tbaa !11
  %11 = icmp ule i32 %10, 127
  br i1 %11, label %12, label %17

12:                                               ; preds = %2
  %13 = load i32, ptr %6, align 4, !tbaa !11
  %14 = trunc i32 %13 to i8
  %15 = load ptr, ptr %4, align 8, !tbaa !8
  %16 = getelementptr inbounds i8, ptr %15, i64 0
  store i8 %14, ptr %16, align 1, !tbaa !10
  store i32 1, ptr %3, align 4
  store i32 1, ptr %7, align 4
  br label %93

17:                                               ; preds = %2
  %18 = load i32, ptr %6, align 4, !tbaa !11
  %19 = icmp ule i32 %18, 2047
  br i1 %19, label %20, label %35

20:                                               ; preds = %17
  %21 = load i32, ptr %6, align 4, !tbaa !11
  %22 = lshr i32 %21, 6
  %23 = trunc i32 %22 to i8
  %24 = sext i8 %23 to i32
  %25 = or i32 192, %24
  %26 = trunc i32 %25 to i8
  %27 = load ptr, ptr %4, align 8, !tbaa !8
  %28 = getelementptr inbounds i8, ptr %27, i64 0
  store i8 %26, ptr %28, align 1, !tbaa !10
  %29 = load i32, ptr %6, align 4, !tbaa !11
  %30 = and i32 %29, 63
  %31 = or i32 128, %30
  %32 = trunc i32 %31 to i8
  %33 = load ptr, ptr %4, align 8, !tbaa !8
  %34 = getelementptr inbounds i8, ptr %33, i64 1
  store i8 %32, ptr %34, align 1, !tbaa !10
  store i32 2, ptr %3, align 4
  store i32 1, ptr %7, align 4
  br label %93

35:                                               ; preds = %17
  %36 = load i32, ptr %6, align 4, !tbaa !11
  %37 = icmp ugt i32 %36, 1114111
  br i1 %37, label %38, label %39

38:                                               ; preds = %35
  store i32 65533, ptr %6, align 4, !tbaa !11
  br label %39

39:                                               ; preds = %38, %35
  %40 = load i32, ptr %6, align 4, !tbaa !11
  %41 = icmp ule i32 %40, 65535
  br i1 %41, label %42, label %64

42:                                               ; preds = %39
  %43 = load i32, ptr %6, align 4, !tbaa !11
  %44 = lshr i32 %43, 12
  %45 = trunc i32 %44 to i8
  %46 = sext i8 %45 to i32
  %47 = or i32 224, %46
  %48 = trunc i32 %47 to i8
  %49 = load ptr, ptr %4, align 8, !tbaa !8
  %50 = getelementptr inbounds i8, ptr %49, i64 0
  store i8 %48, ptr %50, align 1, !tbaa !10
  %51 = load i32, ptr %6, align 4, !tbaa !11
  %52 = lshr i32 %51, 6
  %53 = and i32 %52, 63
  %54 = or i32 128, %53
  %55 = trunc i32 %54 to i8
  %56 = load ptr, ptr %4, align 8, !tbaa !8
  %57 = getelementptr inbounds i8, ptr %56, i64 1
  store i8 %55, ptr %57, align 1, !tbaa !10
  %58 = load i32, ptr %6, align 4, !tbaa !11
  %59 = and i32 %58, 63
  %60 = or i32 128, %59
  %61 = trunc i32 %60 to i8
  %62 = load ptr, ptr %4, align 8, !tbaa !8
  %63 = getelementptr inbounds i8, ptr %62, i64 2
  store i8 %61, ptr %63, align 1, !tbaa !10
  store i32 3, ptr %3, align 4
  store i32 1, ptr %7, align 4
  br label %93

64:                                               ; preds = %39
  %65 = load i32, ptr %6, align 4, !tbaa !11
  %66 = lshr i32 %65, 18
  %67 = trunc i32 %66 to i8
  %68 = sext i8 %67 to i32
  %69 = or i32 240, %68
  %70 = trunc i32 %69 to i8
  %71 = load ptr, ptr %4, align 8, !tbaa !8
  %72 = getelementptr inbounds i8, ptr %71, i64 0
  store i8 %70, ptr %72, align 1, !tbaa !10
  %73 = load i32, ptr %6, align 4, !tbaa !11
  %74 = lshr i32 %73, 12
  %75 = and i32 %74, 63
  %76 = or i32 128, %75
  %77 = trunc i32 %76 to i8
  %78 = load ptr, ptr %4, align 8, !tbaa !8
  %79 = getelementptr inbounds i8, ptr %78, i64 1
  store i8 %77, ptr %79, align 1, !tbaa !10
  %80 = load i32, ptr %6, align 4, !tbaa !11
  %81 = lshr i32 %80, 6
  %82 = and i32 %81, 63
  %83 = or i32 128, %82
  %84 = trunc i32 %83 to i8
  %85 = load ptr, ptr %4, align 8, !tbaa !8
  %86 = getelementptr inbounds i8, ptr %85, i64 2
  store i8 %84, ptr %86, align 1, !tbaa !10
  %87 = load i32, ptr %6, align 4, !tbaa !11
  %88 = and i32 %87, 63
  %89 = or i32 128, %88
  %90 = trunc i32 %89 to i8
  %91 = load ptr, ptr %4, align 8, !tbaa !8
  %92 = getelementptr inbounds i8, ptr %91, i64 3
  store i8 %90, ptr %92, align 1, !tbaa !10
  store i32 4, ptr %3, align 4
  store i32 1, ptr %7, align 4
  br label %93

93:                                               ; preds = %64, %42, %20, %12
  call void @llvm.lifetime.end.p0(i64 4, ptr %6) #3
  %94 = load i32, ptr %3, align 4
  ret i32 %94
}