; Function Attrs: mustprogress nofree norecurse nosync nounwind willreturn memory(argmem: readwrite) uwtable
define hidden noundef range(i32 1, 5) i32 @_ZN10duckdb_re210runetocharEPcPKi(ptr noundef writeonly captures(none) initializes((0, 1)) %0, ptr noundef readonly captures(none) %1) local_unnamed_addr #0 {
  %3 = load i32, ptr %1, align 4, !tbaa !6
  %4 = icmp ult i32 %3, 128
  br i1 %4, label %5, label %7

5:                                                ; preds = %2
  %6 = trunc nuw nsw i32 %3 to i8
  store i8 %6, ptr %0, align 1, !tbaa !3
  br label %50

7:                                                ; preds = %2
  %8 = icmp ult i32 %3, 2048
  br i1 %8, label %9, label %17

9:                                                ; preds = %7
  %10 = lshr i32 %3, 6
  %11 = trunc nuw i32 %10 to i8
  %12 = or disjoint i8 %11, -64
  store i8 %12, ptr %0, align 1, !tbaa !3
  %13 = trunc i32 %3 to i8
  %14 = and i8 %13, 63
  %15 = or disjoint i8 %14, -128
  %16 = getelementptr inbounds nuw i8, ptr %0, i64 1
  store i8 %15, ptr %16, align 1, !tbaa !3
  br label %50

17:                                               ; preds = %7
  %18 = icmp ugt i32 %3, 1114111
  %spec.store.select = select i1 %18, i32 65533, i32 %3
  %19 = icmp ult i32 %spec.store.select, 65536
  %20 = getelementptr inbounds nuw i8, ptr %0, i64 1
  br i1 %19, label %21, label %33

21:                                               ; preds = %17
  %22 = lshr i32 %spec.store.select, 12
  %23 = trunc nuw i32 %22 to i8
  %24 = or disjoint i8 %23, -32
  store i8 %24, ptr %0, align 1, !tbaa !3
  %25 = lshr i32 %spec.store.select, 6
  %26 = trunc i32 %25 to i8
  %27 = and i8 %26, 63
  %28 = or disjoint i8 %27, -128
  store i8 %28, ptr %20, align 1, !tbaa !3
  %29 = trunc i32 %spec.store.select to i8
  %30 = and i8 %29, 63
  %31 = or disjoint i8 %30, -128
  %32 = getelementptr inbounds nuw i8, ptr %0, i64 2
  store i8 %31, ptr %32, align 1, !tbaa !3
  br label %50

33:                                               ; preds = %17
  %34 = lshr i32 %spec.store.select, 18
  %35 = trunc i32 %34 to i8
  %36 = or i8 %35, -16
  store i8 %36, ptr %0, align 1, !tbaa !3
  %37 = lshr i32 %spec.store.select, 12
  %38 = trunc i32 %37 to i8
  %39 = and i8 %38, 63
  %40 = or disjoint i8 %39, -128
  store i8 %40, ptr %20, align 1, !tbaa !3
  %41 = lshr i32 %spec.store.select, 6
  %42 = trunc i32 %41 to i8
  %43 = and i8 %42, 63
  %44 = or disjoint i8 %43, -128
  %45 = getelementptr inbounds nuw i8, ptr %0, i64 2
  store i8 %44, ptr %45, align 1, !tbaa !3
  %46 = trunc i32 %spec.store.select to i8
  %47 = and i8 %46, 63
  %48 = or disjoint i8 %47, -128
  %49 = getelementptr inbounds nuw i8, ptr %0, i64 3
  store i8 %48, ptr %49, align 1, !tbaa !3
  br label %50

50:                                               ; preds = %33, %21, %9, %5
  %.0 = phi i32 [ 1, %5 ], [ 2, %9 ], [ 3, %21 ], [ 4, %33 ]
  ret i32 %.0
}